
Pressure_Detection_System.elf:     file format elf32-littlearm


Disassembly of section .text:

08000000 <vectors>:
 8000000:	20001000 	andcs	r1, r0, r0
 8000004:	08000139 	stmdaeq	r0, {r0, r3, r4, r5, r8}
 8000008:	08000139 	stmdaeq	r0, {r0, r3, r4, r5, r8}
 800000c:	08000139 	stmdaeq	r0, {r0, r3, r4, r5, r8}
 8000010:	08000139 	stmdaeq	r0, {r0, r3, r4, r5, r8}
 8000014:	08000139 	stmdaeq	r0, {r0, r3, r4, r5, r8}

08000018 <Set_Alarm_Actuator>:
 8000018:	b580      	push	{r7, lr}
 800001a:	b082      	sub	sp, #8
 800001c:	af00      	add	r7, sp, #0
 800001e:	4603      	mov	r3, r0
 8000020:	71fb      	strb	r3, [r7, #7]
 8000022:	79fb      	ldrb	r3, [r7, #7]
 8000024:	2b01      	cmp	r3, #1
 8000026:	d102      	bne.n	800002e <Set_Alarm_Actuator+0x16>
 8000028:	f000 f80a 	bl	8000040 <Start_Alarm>
 800002c:	e004      	b.n	8000038 <Set_Alarm_Actuator+0x20>
 800002e:	79fb      	ldrb	r3, [r7, #7]
 8000030:	2b00      	cmp	r3, #0
 8000032:	d101      	bne.n	8000038 <Set_Alarm_Actuator+0x20>
 8000034:	f000 f816 	bl	8000064 <Stop_Alarm>
 8000038:	f107 0708 	add.w	r7, r7, #8
 800003c:	46bd      	mov	sp, r7
 800003e:	bd80      	pop	{r7, pc}

08000040 <Start_Alarm>:
 8000040:	b480      	push	{r7}
 8000042:	af00      	add	r7, sp, #0
 8000044:	f640 030c 	movw	r3, #2060	; 0x80c
 8000048:	f2c4 0301 	movt	r3, #16385	; 0x4001
 800004c:	f640 020c 	movw	r2, #2060	; 0x80c
 8000050:	f2c4 0201 	movt	r2, #16385	; 0x4001
 8000054:	6812      	ldr	r2, [r2, #0]
 8000056:	f422 5200 	bic.w	r2, r2, #8192	; 0x2000
 800005a:	601a      	str	r2, [r3, #0]
 800005c:	46bd      	mov	sp, r7
 800005e:	bc80      	pop	{r7}
 8000060:	4770      	bx	lr
 8000062:	bf00      	nop

08000064 <Stop_Alarm>:
 8000064:	b480      	push	{r7}
 8000066:	af00      	add	r7, sp, #0
 8000068:	f640 030c 	movw	r3, #2060	; 0x80c
 800006c:	f2c4 0301 	movt	r3, #16385	; 0x4001
 8000070:	f640 020c 	movw	r2, #2060	; 0x80c
 8000074:	f2c4 0201 	movt	r2, #16385	; 0x4001
 8000078:	6812      	ldr	r2, [r2, #0]
 800007a:	f442 5200 	orr.w	r2, r2, #8192	; 0x2000
 800007e:	601a      	str	r2, [r3, #0]
 8000080:	46bd      	mov	sp, r7
 8000082:	bc80      	pop	{r7}
 8000084:	4770      	bx	lr
 8000086:	bf00      	nop

08000088 <reset_handler>:
 8000088:	b580      	push	{r7, lr}
 800008a:	b086      	sub	sp, #24
 800008c:	af00      	add	r7, sp, #0
 800008e:	f240 0200 	movw	r2, #0
 8000092:	f2c2 0200 	movt	r2, #8192	; 0x2000
 8000096:	f240 0300 	movw	r3, #0
 800009a:	f2c2 0300 	movt	r3, #8192	; 0x2000
 800009e:	1ad3      	subs	r3, r2, r3
 80000a0:	60bb      	str	r3, [r7, #8]
 80000a2:	f240 2364 	movw	r3, #612	; 0x264
 80000a6:	f6c0 0300 	movt	r3, #2048	; 0x800
 80000aa:	613b      	str	r3, [r7, #16]
 80000ac:	f240 0300 	movw	r3, #0
 80000b0:	f2c2 0300 	movt	r3, #8192	; 0x2000
 80000b4:	60fb      	str	r3, [r7, #12]
 80000b6:	f04f 0300 	mov.w	r3, #0
 80000ba:	617b      	str	r3, [r7, #20]
 80000bc:	e00f      	b.n	80000de <reset_handler+0x56>
 80000be:	693b      	ldr	r3, [r7, #16]
 80000c0:	781a      	ldrb	r2, [r3, #0]
 80000c2:	68fb      	ldr	r3, [r7, #12]
 80000c4:	701a      	strb	r2, [r3, #0]
 80000c6:	693b      	ldr	r3, [r7, #16]
 80000c8:	f103 0301 	add.w	r3, r3, #1
 80000cc:	613b      	str	r3, [r7, #16]
 80000ce:	68fb      	ldr	r3, [r7, #12]
 80000d0:	f103 0301 	add.w	r3, r3, #1
 80000d4:	60fb      	str	r3, [r7, #12]
 80000d6:	697b      	ldr	r3, [r7, #20]
 80000d8:	f103 0301 	add.w	r3, r3, #1
 80000dc:	617b      	str	r3, [r7, #20]
 80000de:	697a      	ldr	r2, [r7, #20]
 80000e0:	68bb      	ldr	r3, [r7, #8]
 80000e2:	429a      	cmp	r2, r3
 80000e4:	d3eb      	bcc.n	80000be <reset_handler+0x36>
 80000e6:	f240 0200 	movw	r2, #0
 80000ea:	f2c2 0200 	movt	r2, #8192	; 0x2000
 80000ee:	f240 0300 	movw	r3, #0
 80000f2:	f2c2 0300 	movt	r3, #8192	; 0x2000
 80000f6:	1ad3      	subs	r3, r2, r3
 80000f8:	607b      	str	r3, [r7, #4]
 80000fa:	f240 0300 	movw	r3, #0
 80000fe:	f2c2 0300 	movt	r3, #8192	; 0x2000
 8000102:	60fb      	str	r3, [r7, #12]
 8000104:	f04f 0300 	mov.w	r3, #0
 8000108:	617b      	str	r3, [r7, #20]
 800010a:	e00b      	b.n	8000124 <reset_handler+0x9c>
 800010c:	68fb      	ldr	r3, [r7, #12]
 800010e:	f04f 0200 	mov.w	r2, #0
 8000112:	701a      	strb	r2, [r3, #0]
 8000114:	68fb      	ldr	r3, [r7, #12]
 8000116:	f103 0301 	add.w	r3, r3, #1
 800011a:	60fb      	str	r3, [r7, #12]
 800011c:	697b      	ldr	r3, [r7, #20]
 800011e:	f103 0301 	add.w	r3, r3, #1
 8000122:	617b      	str	r3, [r7, #20]
 8000124:	697a      	ldr	r2, [r7, #20]
 8000126:	687b      	ldr	r3, [r7, #4]
 8000128:	429a      	cmp	r2, r3
 800012a:	d3ef      	bcc.n	800010c <reset_handler+0x84>
 800012c:	f000 f80a 	bl	8000144 <main>
 8000130:	f107 0718 	add.w	r7, r7, #24
 8000134:	46bd      	mov	sp, r7
 8000136:	bd80      	pop	{r7, pc}

08000138 <default_handler>:
 8000138:	b580      	push	{r7, lr}
 800013a:	af00      	add	r7, sp, #0
 800013c:	f7ff ffa4 	bl	8000088 <reset_handler>
 8000140:	bd80      	pop	{r7, pc}
 8000142:	bf00      	nop

08000144 <main>:
 8000144:	b580      	push	{r7, lr}
 8000146:	b082      	sub	sp, #8
 8000148:	af00      	add	r7, sp, #0
 800014a:	f000 f813 	bl	8000174 <GPIO_INITIALIZATION>
 800014e:	f000 f851 	bl	80001f4 <ALARM_INITIALIZATION>
 8000152:	f000 f87b 	bl	800024c <Get_Pressure_Val>
 8000156:	4603      	mov	r3, r0
 8000158:	607b      	str	r3, [r7, #4]
 800015a:	687b      	ldr	r3, [r7, #4]
 800015c:	2b14      	cmp	r3, #20
 800015e:	dd01      	ble.n	8000164 <main+0x20>
 8000160:	f000 f850 	bl	8000204 <High_Pressure_Detected>
 8000164:	f249 30e0 	movw	r0, #37856	; 0x93e0
 8000168:	f2c0 0004 	movt	r0, #4
 800016c:	f000 f85c 	bl	8000228 <Delay>
 8000170:	e7ef      	b.n	8000152 <main+0xe>
 8000172:	bf00      	nop

08000174 <GPIO_INITIALIZATION>:
 8000174:	b480      	push	{r7}
 8000176:	af00      	add	r7, sp, #0
 8000178:	f241 0318 	movw	r3, #4120	; 0x1018
 800017c:	f2c4 0302 	movt	r3, #16386	; 0x4002
 8000180:	f241 0218 	movw	r2, #4120	; 0x1018
 8000184:	f2c4 0202 	movt	r2, #16386	; 0x4002
 8000188:	6812      	ldr	r2, [r2, #0]
 800018a:	f042 0204 	orr.w	r2, r2, #4
 800018e:	601a      	str	r2, [r3, #0]
 8000190:	f44f 6300 	mov.w	r3, #2048	; 0x800
 8000194:	f2c4 0301 	movt	r3, #16385	; 0x4001
 8000198:	f44f 6200 	mov.w	r2, #2048	; 0x800
 800019c:	f2c4 0201 	movt	r2, #16385	; 0x4001
 80001a0:	6812      	ldr	r2, [r2, #0]
 80001a2:	f422 0270 	bic.w	r2, r2, #15728640	; 0xf00000
 80001a6:	601a      	str	r2, [r3, #0]
 80001a8:	f44f 6300 	mov.w	r3, #2048	; 0x800
 80001ac:	f2c4 0301 	movt	r3, #16385	; 0x4001
 80001b0:	f44f 6200 	mov.w	r2, #2048	; 0x800
 80001b4:	f2c4 0201 	movt	r2, #16385	; 0x4001
 80001b8:	6812      	ldr	r2, [r2, #0]
 80001ba:	601a      	str	r2, [r3, #0]
 80001bc:	f640 0304 	movw	r3, #2052	; 0x804
 80001c0:	f2c4 0301 	movt	r3, #16385	; 0x4001
 80001c4:	f640 0204 	movw	r2, #2052	; 0x804
 80001c8:	f2c4 0201 	movt	r2, #16385	; 0x4001
 80001cc:	6812      	ldr	r2, [r2, #0]
 80001ce:	f422 0270 	bic.w	r2, r2, #15728640	; 0xf00000
 80001d2:	601a      	str	r2, [r3, #0]
 80001d4:	f640 0304 	movw	r3, #2052	; 0x804
 80001d8:	f2c4 0301 	movt	r3, #16385	; 0x4001
 80001dc:	f640 0204 	movw	r2, #2052	; 0x804
 80001e0:	f2c4 0201 	movt	r2, #16385	; 0x4001
 80001e4:	6812      	ldr	r2, [r2, #0]
 80001e6:	f042 3222 	orr.w	r2, r2, #572662306	; 0x22222222
 80001ea:	601a      	str	r2, [r3, #0]
 80001ec:	46bd      	mov	sp, r7
 80001ee:	bc80      	pop	{r7}
 80001f0:	4770      	bx	lr
 80001f2:	bf00      	nop

080001f4 <ALARM_INITIALIZATION>:
 80001f4:	b580      	push	{r7, lr}
 80001f6:	af00      	add	r7, sp, #0
 80001f8:	f04f 0000 	mov.w	r0, #0
 80001fc:	f7ff ff0c 	bl	8000018 <Set_Alarm_Actuator>
 8000200:	bd80      	pop	{r7, pc}
 8000202:	bf00      	nop

08000204 <High_Pressure_Detected>:
 8000204:	b580      	push	{r7, lr}
 8000206:	af00      	add	r7, sp, #0
 8000208:	f04f 0001 	mov.w	r0, #1
 800020c:	f7ff ff04 	bl	8000018 <Set_Alarm_Actuator>
 8000210:	f44f 6054 	mov.w	r0, #3392	; 0xd40
 8000214:	f2c0 0003 	movt	r0, #3
 8000218:	f000 f806 	bl	8000228 <Delay>
 800021c:	f04f 0000 	mov.w	r0, #0
 8000220:	f7ff fefa 	bl	8000018 <Set_Alarm_Actuator>
 8000224:	bd80      	pop	{r7, pc}
 8000226:	bf00      	nop

08000228 <Delay>:
 8000228:	b480      	push	{r7}
 800022a:	b083      	sub	sp, #12
 800022c:	af00      	add	r7, sp, #0
 800022e:	6078      	str	r0, [r7, #4]
 8000230:	e003      	b.n	800023a <Delay+0x12>
 8000232:	687b      	ldr	r3, [r7, #4]
 8000234:	f103 33ff 	add.w	r3, r3, #4294967295
 8000238:	607b      	str	r3, [r7, #4]
 800023a:	687b      	ldr	r3, [r7, #4]
 800023c:	2b00      	cmp	r3, #0
 800023e:	d1f8      	bne.n	8000232 <Delay+0xa>
 8000240:	f107 070c 	add.w	r7, r7, #12
 8000244:	46bd      	mov	sp, r7
 8000246:	bc80      	pop	{r7}
 8000248:	4770      	bx	lr
 800024a:	bf00      	nop

0800024c <Get_Pressure_Val>:
 800024c:	b480      	push	{r7}
 800024e:	af00      	add	r7, sp, #0
 8000250:	f640 0308 	movw	r3, #2056	; 0x808
 8000254:	f2c4 0301 	movt	r3, #16385	; 0x4001
 8000258:	681b      	ldr	r3, [r3, #0]
 800025a:	b2db      	uxtb	r3, r3
 800025c:	4618      	mov	r0, r3
 800025e:	46bd      	mov	sp, r7
 8000260:	bc80      	pop	{r7}
 8000262:	4770      	bx	lr
